target datalayout = "e-m:e-p270:32:32-p271:32:32-p272:64:64-i64:64-i128:128-f80:128-n8:16:32:64-S128"
target triple = "x86_64-pc-linux-gnu"

%struct.InstrProfValueData = type { i64, i64 }
%"struct.llvm::ValueProfRecord" = type { i32, i32, [1 x i8] }
%"struct.llvm::ValueProfData" = type { i32, i32 }

; Function Attrs: mustprogress nounwind uwtable
define linkonce_odr hidden noundef i64 @_ZN4llvm8byteswapImvEET_S1_(i64 noundef %0) #1 comdat {
  %2 = alloca i64, align 8
  %3 = alloca i64, align 8
  store i64 %0, ptr %2, align 8
  %4 = load i64, ptr %2, align 8
  store i64 %4, ptr %3, align 8
  %5 = load i64, ptr %3, align 8
  %6 = call i64 @llvm.bswap.i64(i64 %5)
  ret i64 %6
}

; Function Attrs: mustprogress nounwind uwtable
define linkonce_odr hidden noundef i32 @_ZN4llvm8byteswapIjvEET_S1_(i32 noundef %0) #1 comdat {
  %2 = alloca i32, align 4
  %3 = alloca i32, align 4
  store i32 %0, ptr %2, align 4
  %4 = load i32, ptr %2, align 4
  store i32 %4, ptr %3, align 4
  %5 = load i32, ptr %3, align 4
  %6 = call i32 @llvm.bswap.i32(i32 %5)
  ret i32 %6
}

; Function Attrs: mustprogress nounwind uwtable
define linkonce_odr hidden noundef i64 @_ZN4llvm3sys15getSwappedBytesEm(i64 noundef %0) #1 comdat {
  %2 = alloca i64, align 8
  store i64 %0, ptr %2, align 8
  %3 = load i64, ptr %2, align 8
  %4 = call noundef i64 @_ZN4llvm8byteswapImvEET_S1_(i64 noundef %3) #2
  ret i64 %4
}

; Function Attrs: mustprogress nounwind uwtable
define linkonce_odr hidden noundef i32 @_ZN4llvm28getValueProfRecordHeaderSizeEj(i32 noundef %0) #1 comdat {
  %2 = alloca i32, align 4
  %3 = alloca i32, align 4
  store i32 %0, ptr %2, align 4
  %4 = load i32, ptr %2, align 4
  %5 = zext i32 %4 to i64
  %6 = mul i64 1, %5
  %7 = add i64 8, %6
  %8 = trunc i64 %7 to i32
  store i32 %8, ptr %3, align 4
  %9 = load i32, ptr %3, align 4
  %10 = add i32 %9, 7
  %11 = and i32 %10, -8
  store i32 %11, ptr %3, align 4
  %12 = load i32, ptr %3, align 4
  ret i32 %12
}

; Function Attrs: mustprogress nounwind uwtable
define linkonce_odr hidden noundef i32 @_ZN4llvm3sys15getSwappedBytesEj(i32 noundef %0) #1 comdat {
  %2 = alloca i32, align 4
  store i32 %0, ptr %2, align 4
  %3 = load i32, ptr %2, align 4
  %4 = call noundef i32 @_ZN4llvm8byteswapIjvEET_S1_(i32 noundef %3) #2
  ret i32 %4
}

; Function Attrs: mustprogress nounwind uwtable
define linkonce_odr hidden void @_ZN4llvm3sys13swapByteOrderImEEvRT_(ptr noundef nonnull align 8 dereferenceable(8) %0) #1 comdat {
  %2 = alloca ptr, align 8
  store ptr %0, ptr %2, align 8
  %3 = load ptr, ptr %2, align 8
  %4 = load i64, ptr %3, align 8
  %5 = call noundef i64 @_ZN4llvm3sys15getSwappedBytesEm(i64 noundef %4)
  %6 = load ptr, ptr %2, align 8
  store i64 %5, ptr %6, align 8
  ret void
}

; Function Attrs: mustprogress nounwind uwtable
define linkonce_odr hidden noundef ptr @_ZN4llvm27getValueProfRecordValueDataEPNS_15ValueProfRecordE(ptr noundef %0) #1 comdat {
  %2 = alloca ptr, align 8
  store ptr %0, ptr %2, align 8
  %3 = load ptr, ptr %2, align 8
  %4 = load ptr, ptr %2, align 8
  %5 = getelementptr inbounds nuw %"struct.llvm::ValueProfRecord", ptr %4, i32 0, i32 1
  %6 = load i32, ptr %5, align 4
  %7 = call noundef i32 @_ZN4llvm28getValueProfRecordHeaderSizeEj(i32 noundef %6)
  %8 = zext i32 %7 to i64
  %9 = getelementptr inbounds i8, ptr %3, i64 %8
  ret ptr %9
}

; Function Attrs: mustprogress nounwind uwtable
define linkonce_odr hidden noundef i32 @_ZN4llvm22getValueProfRecordSizeEjj(i32 noundef %0, i32 noundef %1) #1 comdat {
  %3 = alloca i32, align 4
  %4 = alloca i32, align 4
  store i32 %0, ptr %3, align 4
  store i32 %1, ptr %4, align 4
  %5 = load i32, ptr %3, align 4
  %6 = call noundef i32 @_ZN4llvm28getValueProfRecordHeaderSizeEj(i32 noundef %5)
  %7 = zext i32 %6 to i64
  %8 = load i32, ptr %4, align 4
  %9 = zext i32 %8 to i64
  %10 = mul i64 16, %9
  %11 = add i64 %7, %10
  %12 = trunc i64 %11 to i32
  ret i32 %12
}

; Function Attrs: mustprogress nounwind uwtable
define linkonce_odr hidden noundef i32 @_ZN4llvm30getValueProfRecordNumValueDataEPNS_15ValueProfRecordE(ptr noundef %0) #1 comdat {
  %2 = alloca ptr, align 8
  %3 = alloca i32, align 4
  %4 = alloca i32, align 4
  store ptr %0, ptr %2, align 8
  store i32 0, ptr %3, align 4
  store i32 0, ptr %4, align 4
  br label %5

5:                                                ; preds = %21, %1
  %6 = load i32, ptr %4, align 4
  %7 = load ptr, ptr %2, align 8
  %8 = getelementptr inbounds nuw %"struct.llvm::ValueProfRecord", ptr %7, i32 0, i32 1
  %9 = load i32, ptr %8, align 4
  %10 = icmp ult i32 %6, %9
  br i1 %10, label %11, label %24

11:                                               ; preds = %5
  %12 = load ptr, ptr %2, align 8
  %13 = getelementptr inbounds nuw %"struct.llvm::ValueProfRecord", ptr %12, i32 0, i32 2
  %14 = load i32, ptr %4, align 4
  %15 = zext i32 %14 to i64
  %16 = getelementptr inbounds [1 x i8], ptr %13, i64 0, i64 %15
  %17 = load i8, ptr %16, align 1
  %18 = zext i8 %17 to i32
  %19 = load i32, ptr %3, align 4
  %20 = add i32 %19, %18
  store i32 %20, ptr %3, align 4
  br label %21

21:                                               ; preds = %11
  %22 = load i32, ptr %4, align 4
  %23 = add i32 %22, 1
  store i32 %23, ptr %4, align 4
  br label %5, !llvm.loop !35

24:                                               ; preds = %5
  %25 = load i32, ptr %3, align 4
  ret i32 %25
}

; Function Attrs: mustprogress nounwind uwtable
define linkonce_odr hidden void @_ZN4llvm3sys13swapByteOrderIjEEvRT_(ptr noundef nonnull align 4 dereferenceable(4) %0) #1 comdat {
  %2 = alloca ptr, align 8
  store ptr %0, ptr %2, align 8
  %3 = load ptr, ptr %2, align 8
  %4 = load i32, ptr %3, align 4
  %5 = call noundef i32 @_ZN4llvm3sys15getSwappedBytesEj(i32 noundef %4)
  %6 = load ptr, ptr %2, align 8
  store i32 %5, ptr %6, align 4
  ret void
}

; Function Attrs: mustprogress nounwind uwtable
define dso_local void @_ZN4llvm15ValueProfRecord9swapBytesENS_10endiannessES1_(ptr noundef nonnull align 4 dereferenceable(12) %0, i32 noundef %1, i32 noundef %2) #1 align 2 {
  %4 = alloca ptr, align 8
  %5 = alloca i32, align 4
  %6 = alloca i32, align 4
  %7 = alloca i32, align 4
  %8 = alloca ptr, align 8
  %9 = alloca i32, align 4
  store ptr %0, ptr %4, align 8
  store i32 %1, ptr %5, align 4
  store i32 %2, ptr %6, align 4
  %10 = load ptr, ptr %4, align 8
  %11 = load i32, ptr %5, align 4
  %12 = load i32, ptr %6, align 4
  %13 = icmp eq i32 %11, %12
  br i1 %13, label %14, label %15

14:                                               ; preds = %3
  br label %48

15:                                               ; preds = %3
  %16 = load i32, ptr %5, align 4
  %17 = icmp ne i32 1, %16
  br i1 %17, label %18, label %21

18:                                               ; preds = %15
  %19 = getelementptr inbounds nuw %"struct.llvm::ValueProfRecord", ptr %10, i32 0, i32 1
  call void @_ZN4llvm3sys13swapByteOrderIjEEvRT_(ptr noundef nonnull align 4 dereferenceable(4) %19)
  %20 = getelementptr inbounds nuw %"struct.llvm::ValueProfRecord", ptr %10, i32 0, i32 0
  call void @_ZN4llvm3sys13swapByteOrderIjEEvRT_(ptr noundef nonnull align 4 dereferenceable(4) %20)
  br label %21

21:                                               ; preds = %18, %15
  %22 = call noundef i32 @_ZN4llvm30getValueProfRecordNumValueDataEPNS_15ValueProfRecordE(ptr noundef %10)
  store i32 %22, ptr %7, align 4
  %23 = call noundef ptr @_ZN4llvm27getValueProfRecordValueDataEPNS_15ValueProfRecordE(ptr noundef %10)
  store ptr %23, ptr %8, align 8
  store i32 0, ptr %9, align 4
  br label %24

24:                                               ; preds = %39, %21
  %25 = load i32, ptr %9, align 4
  %26 = load i32, ptr %7, align 4
  %27 = icmp ult i32 %25, %26
  br i1 %27, label %28, label %42

28:                                               ; preds = %24
  %29 = load ptr, ptr %8, align 8
  %30 = load i32, ptr %9, align 4
  %31 = zext i32 %30 to i64
  %32 = getelementptr inbounds %struct.InstrProfValueData, ptr %29, i64 %31
  %33 = getelementptr inbounds nuw %struct.InstrProfValueData, ptr %32, i32 0, i32 0
  call void @_ZN4llvm3sys13swapByteOrderImEEvRT_(ptr noundef nonnull align 8 dereferenceable(8) %33)
  %34 = load ptr, ptr %8, align 8
  %35 = load i32, ptr %9, align 4
  %36 = zext i32 %35 to i64
  %37 = getelementptr inbounds %struct.InstrProfValueData, ptr %34, i64 %36
  %38 = getelementptr inbounds nuw %struct.InstrProfValueData, ptr %37, i32 0, i32 1
  call void @_ZN4llvm3sys13swapByteOrderImEEvRT_(ptr noundef nonnull align 8 dereferenceable(8) %38)
  br label %39

39:                                               ; preds = %28
  %40 = load i32, ptr %9, align 4
  %41 = add i32 %40, 1
  store i32 %41, ptr %9, align 4
  br label %24, !llvm.loop !34

42:                                               ; preds = %24
  %43 = load i32, ptr %5, align 4
  %44 = icmp eq i32 1, %43
  br i1 %44, label %45, label %48

45:                                               ; preds = %42
  %46 = getelementptr inbounds nuw %"struct.llvm::ValueProfRecord", ptr %10, i32 0, i32 1
  call void @_ZN4llvm3sys13swapByteOrderIjEEvRT_(ptr noundef nonnull align 4 dereferenceable(4) %46)
  %47 = getelementptr inbounds nuw %"struct.llvm::ValueProfRecord", ptr %10, i32 0, i32 0
  call void @_ZN4llvm3sys13swapByteOrderIjEEvRT_(ptr noundef nonnull align 4 dereferenceable(4) %47)
  br label %48

48:                                               ; preds = %45, %42, %14
  ret void
}

; Function Attrs: mustprogress nounwind uwtable
define linkonce_odr hidden noundef ptr @_ZN4llvm22getValueProfRecordNextEPNS_15ValueProfRecordE(ptr noundef %0) #1 comdat {
  %2 = alloca ptr, align 8
  %3 = alloca i32, align 4
  store ptr %0, ptr %2, align 8
  %4 = load ptr, ptr %2, align 8
  %5 = call noundef i32 @_ZN4llvm30getValueProfRecordNumValueDataEPNS_15ValueProfRecordE(ptr noundef %4)
  store i32 %5, ptr %3, align 4
  %6 = load ptr, ptr %2, align 8
  %7 = load ptr, ptr %2, align 8
  %8 = getelementptr inbounds nuw %"struct.llvm::ValueProfRecord", ptr %7, i32 0, i32 1
  %9 = load i32, ptr %8, align 4
  %10 = load i32, ptr %3, align 4
  %11 = call noundef i32 @_ZN4llvm22getValueProfRecordSizeEjj(i32 noundef %9, i32 noundef %10)
  %12 = zext i32 %11 to i64
  %13 = getelementptr inbounds i8, ptr %6, i64 %12
  ret ptr %13
}

; Function Attrs: mustprogress nounwind uwtable
define linkonce_odr hidden noundef ptr @_ZN4llvm23getFirstValueProfRecordEPNS_13ValueProfDataE(ptr noundef %0) #1 comdat {
  %2 = alloca ptr, align 8
  store ptr %0, ptr %2, align 8
  %3 = load ptr, ptr %2, align 8
  %4 = getelementptr inbounds i8, ptr %3, i64 8
  ret ptr %4
}

; Function Attrs: mustprogress nounwind uwtable
define dso_local void @_ZN4llvm13ValueProfData17swapBytesFromHostENS_10endiannessE(ptr noundef nonnull align 4 dereferenceable(8) %0, i32 noundef %1) #1 align 2 {
  %3 = alloca ptr, align 8
  %4 = alloca i32, align 4
  %5 = alloca ptr, align 8
  %6 = alloca i32, align 4
  %7 = alloca ptr, align 8
  store ptr %0, ptr %3, align 8
  store i32 %1, ptr %4, align 4
  %8 = load ptr, ptr %3, align 8
  %9 = load i32, ptr %4, align 4
  %10 = icmp eq i32 %9, 1
  br i1 %10, label %11, label %12

11:                                               ; preds = %2
  br label %31

12:                                               ; preds = %2
  %13 = call noundef ptr @_ZN4llvm23getFirstValueProfRecordEPNS_13ValueProfDataE(ptr noundef %8)
  store ptr %13, ptr %5, align 8
  store i32 0, ptr %6, align 4
  br label %14

14:                                               ; preds = %25, %12
  %15 = load i32, ptr %6, align 4
  %16 = getelementptr inbounds nuw %"struct.llvm::ValueProfData", ptr %8, i32 0, i32 1
  %17 = load i32, ptr %16, align 4
  %18 = icmp ult i32 %15, %17
  br i1 %18, label %19, label %28

19:                                               ; preds = %14
  %20 = load ptr, ptr %5, align 8
  %21 = call noundef ptr @_ZN4llvm22getValueProfRecordNextEPNS_15ValueProfRecordE(ptr noundef %20)
  store ptr %21, ptr %7, align 8
  %22 = load ptr, ptr %5, align 8
  %23 = load i32, ptr %4, align 4
  call void @_ZN4llvm15ValueProfRecord9swapBytesENS_10endiannessES1_(ptr noundef nonnull align 4 dereferenceable(12) %22, i32 noundef 1, i32 noundef %23)
  %24 = load ptr, ptr %7, align 8
  store ptr %24, ptr %5, align 8
  br label %25

25:                                               ; preds = %19
  %26 = load i32, ptr %6, align 4
  %27 = add i32 %26, 1
  store i32 %27, ptr %6, align 4
  br label %14, !llvm.loop !39

28:                                               ; preds = %14
  %29 = getelementptr inbounds nuw %"struct.llvm::ValueProfData", ptr %8, i32 0, i32 0
  call void @_ZN4llvm3sys13swapByteOrderIjEEvRT_(ptr noundef nonnull align 4 dereferenceable(4) %29)
  %30 = getelementptr inbounds nuw %"struct.llvm::ValueProfData", ptr %8, i32 0, i32 1
  call void @_ZN4llvm3sys13swapByteOrderIjEEvRT_(ptr noundef nonnull align 4 dereferenceable(4) %30)
  br label %31

31:                                               ; preds = %28, %11
  ret void
}