; Function Attrs: mustprogress nofree norecurse nosync nounwind memory(argmem: readwrite) uwtable
define dso_local void @_ZN4llvm13ValueProfData17swapBytesFromHostENS_10endiannessE(ptr noundef nonnull align 4 captures(none) dereferenceable(8) %0, i32 noundef %1) local_unnamed_addr #10 align 2 {
  %3 = icmp eq i32 %1, 1
  br i1 %3, label %46, label %4

4:                                                ; preds = %2
  %5 = getelementptr inbounds nuw i8, ptr %0, i64 4
  %6 = load i32, ptr %5, align 4
  %.not = icmp eq i32 %6, 0
  br i1 %.not, label %._crit_edge, label %.lr.ph.preheader

.lr.ph.preheader:                                 ; preds = %4
  %7 = getelementptr inbounds nuw i8, ptr %0, i64 8
  br label %.lr.ph

.lr.ph:                                           ; preds = %.lr.ph.preheader, %_ZN4llvm15ValueProfRecord9swapBytesENS_10endiannessES1_.exit
  %.021 = phi ptr [ %36, %_ZN4llvm15ValueProfRecord9swapBytesENS_10endiannessES1_.exit ], [ %7, %.lr.ph.preheader ]
  %.0720 = phi i32 [ %40, %_ZN4llvm15ValueProfRecord9swapBytesENS_10endiannessES1_.exit ], [ 0, %.lr.ph.preheader ]
  %8 = getelementptr inbounds nuw i8, ptr %.021, i64 4
  %9 = load i32, ptr %8, align 4
  %.not.i.i = icmp eq i32 %9, 0
  %10 = getelementptr inbounds nuw i8, ptr %.021, i64 8
  br i1 %.not.i.i, label %_ZN4llvm15ValueProfRecord9swapBytesENS_10endiannessES1_.exit, label %.lr.ph.i.i

.lr.ph.i.i:                                       ; preds = %.lr.ph
  %wide.trip.count.i.i = zext i32 %9 to i64
  br label %11

11:                                               ; preds = %11, %.lr.ph.i.i
  %indvars.iv.i.i = phi i64 [ 0, %.lr.ph.i.i ], [ %indvars.iv.next.i.i, %11 ]
  %.067.i.i = phi i32 [ 0, %.lr.ph.i.i ], [ %15, %11 ]
  %12 = getelementptr inbounds nuw [1 x i8], ptr %10, i64 0, i64 %indvars.iv.i.i
  %13 = load i8, ptr %12, align 1
  %14 = zext i8 %13 to i32
  %15 = add i32 %.067.i.i, %14
  %indvars.iv.next.i.i = add nuw nsw i64 %indvars.iv.i.i, 1
  %exitcond.not.i.i = icmp eq i64 %indvars.iv.next.i.i, %wide.trip.count.i.i
  br i1 %exitcond.not.i.i, label %.lr.ph.i.i10, label %11, !llvm.loop !144

.lr.ph.i.i10:                                     ; preds = %11
  %16 = shl i32 %15, 4
  %17 = add i32 %9, 15
  %18 = and i32 %17, -8
  %19 = add i32 %16, %18
  %20 = zext i32 %19 to i64
  br label %21

21:                                               ; preds = %21, %.lr.ph.i.i10
  %indvars.iv.i.i12 = phi i64 [ 0, %.lr.ph.i.i10 ], [ %indvars.iv.next.i.i14, %21 ]
  %.067.i.i13 = phi i32 [ 0, %.lr.ph.i.i10 ], [ %25, %21 ]
  %22 = getelementptr inbounds nuw [1 x i8], ptr %10, i64 0, i64 %indvars.iv.i.i12
  %23 = load i8, ptr %22, align 1
  %24 = zext i8 %23 to i32
  %25 = add i32 %.067.i.i13, %24
  %indvars.iv.next.i.i14 = add nuw nsw i64 %indvars.iv.i.i12, 1
  %exitcond.not.i.i15 = icmp eq i64 %indvars.iv.next.i.i14, %wide.trip.count.i.i
  br i1 %exitcond.not.i.i15, label %_ZN4llvm30getValueProfRecordNumValueDataEPNS_15ValueProfRecordE.exit.i, label %21, !llvm.loop !144

_ZN4llvm30getValueProfRecordNumValueDataEPNS_15ValueProfRecordE.exit.i: ; preds = %21
  %26 = getelementptr inbounds nuw i8, ptr %.021, i64 %20
  %27 = zext i32 %18 to i64
  %28 = getelementptr inbounds nuw i8, ptr %.021, i64 %27
  %.not13.i = icmp eq i32 %25, 0
  br i1 %.not13.i, label %_ZN4llvm15ValueProfRecord9swapBytesENS_10endiannessES1_.exit, label %.lr.ph.preheader.i

.lr.ph.preheader.i:                               ; preds = %_ZN4llvm30getValueProfRecordNumValueDataEPNS_15ValueProfRecordE.exit.i
  %wide.trip.count.i = zext i32 %25 to i64
  br label %.lr.ph.i

.lr.ph.i:                                         ; preds = %.lr.ph.i, %.lr.ph.preheader.i
  %indvars.iv.i = phi i64 [ 0, %.lr.ph.preheader.i ], [ %indvars.iv.next.i, %.lr.ph.i ]
  %29 = getelementptr inbounds nuw %struct.InstrProfValueData, ptr %28, i64 %indvars.iv.i
  %30 = load i64, ptr %29, align 8
  %31 = tail call noundef i64 @llvm.bswap.i64(i64 %30)
  store i64 %31, ptr %29, align 8
  %32 = getelementptr inbounds nuw i8, ptr %29, i64 8
  %33 = load i64, ptr %32, align 8
  %34 = tail call noundef i64 @llvm.bswap.i64(i64 %33)
  store i64 %34, ptr %32, align 8
  %indvars.iv.next.i = add nuw nsw i64 %indvars.iv.i, 1
  %exitcond.not.i = icmp eq i64 %indvars.iv.next.i, %wide.trip.count.i
  br i1 %exitcond.not.i, label %_ZN4llvm15ValueProfRecord9swapBytesENS_10endiannessES1_.exit.loopexit, label %.lr.ph.i, !llvm.loop !158

_ZN4llvm15ValueProfRecord9swapBytesENS_10endiannessES1_.exit.loopexit: ; preds = %.lr.ph.i
  %.pre = load i32, ptr %8, align 4
  br label %_ZN4llvm15ValueProfRecord9swapBytesENS_10endiannessES1_.exit

_ZN4llvm15ValueProfRecord9swapBytesENS_10endiannessES1_.exit: ; preds = %.lr.ph, %_ZN4llvm15ValueProfRecord9swapBytesENS_10endiannessES1_.exit.loopexit, %_ZN4llvm30getValueProfRecordNumValueDataEPNS_15ValueProfRecordE.exit.i
  %35 = phi i32 [ %9, %_ZN4llvm30getValueProfRecordNumValueDataEPNS_15ValueProfRecordE.exit.i ], [ %.pre, %_ZN4llvm15ValueProfRecord9swapBytesENS_10endiannessES1_.exit.loopexit ], [ 0, %.lr.ph ]
  %36 = phi ptr [ %26, %_ZN4llvm30getValueProfRecordNumValueDataEPNS_15ValueProfRecordE.exit.i ], [ %26, %_ZN4llvm15ValueProfRecord9swapBytesENS_10endiannessES1_.exit.loopexit ], [ %10, %.lr.ph ]
  %37 = tail call noundef i32 @llvm.bswap.i32(i32 %35)
  store i32 %37, ptr %8, align 4
  %38 = load i32, ptr %.021, align 4
  %39 = tail call noundef i32 @llvm.bswap.i32(i32 %38)
  store i32 %39, ptr %.021, align 4
  %40 = add nuw i32 %.0720, 1
  %41 = load i32, ptr %5, align 4
  %42 = icmp ult i32 %40, %41
  br i1 %42, label %.lr.ph, label %._crit_edge, !llvm.loop !210

._crit_edge:                                      ; preds = %_ZN4llvm15ValueProfRecord9swapBytesENS_10endiannessES1_.exit, %4
  %.lcssa18 = phi i32 [ 0, %4 ], [ %41, %_ZN4llvm15ValueProfRecord9swapBytesENS_10endiannessES1_.exit ]
  %43 = load i32, ptr %0, align 4
  %44 = tail call noundef i32 @llvm.bswap.i32(i32 %43)
  store i32 %44, ptr %0, align 4
  %45 = tail call noundef i32 @llvm.bswap.i32(i32 %.lcssa18)
  store i32 %45, ptr %5, align 4
  br label %46

46:                                               ; preds = %2, %._crit_edge
  ret void
}